(dp1
V042242
p2
(dp3
Vtdfront
p4
Vtcp://180.168.146.187:10000
p5
sVpassword
p6
V123456
p7
sVusezmq
p8
V0
sVzmqserver
p9
Vtcp://localhost:9999
p10
sVuserid
p11
V042242
p12
sVinstrument
p13
VIF=
p14
sVbrokerid
p15
V9999
p16
sVmdfront
p17
Vtcp://180.168.146.187:10010
p18
ss.
p23
V2222
p24
sVusezmq
p25
V1
sVzmqserver
p26
Vtcp://123
p27
sVuserid
p28
V2222
p29
sVinstrument
p30
VIH=+IF=+IC=
p31
sVbrokerid
p32
V2222
p33
sVmdfront
p34
Vtcp://123
p35
ss.